; Function Attrs: mustprogress nounwind uwtable
define internal void @_ZNK12_GLOBAL__N_117DivisionBRVisitor7ProfileERN4llvm16FoldingSetNodeIDE(ptr nocapture noundef nonnull readonly align 8 dereferenceable(33) %0, ptr noundef nonnull align 8 dereferenceable(144) %1) unnamed_addr #0 align 2 {
  %3 = getelementptr inbounds nuw i8, ptr %0, i64 16
  %4 = load ptr, ptr %3, align 8
  %5 = ptrtoint ptr %4 to i64
  tail call void @_ZN4llvm16FoldingSetNodeID10AddIntegerEy(ptr noundef nonnull align 8 dereferenceable(144) %1, i64 noundef %5)
  %6 = getelementptr inbounds nuw i8, ptr %0, i64 24
  %7 = load ptr, ptr %6, align 8
  %8 = ptrtoint ptr %7 to i64
  tail call void @_ZN4llvm16FoldingSetNodeID10AddIntegerEy(ptr noundef nonnull align 8 dereferenceable(144) %1, i64 noundef %8)
  ret void
}